; Function Attrs: mustprogress nofree norecurse nosync nounwind willreturn memory(argmem: read) uwtable
define { i64, double } @_ZNK8QuantLib20NothingExerciseValue5valueERKNS_10CurveStateE(ptr nocapture noundef nonnull readonly align 8 dereferenceable(208) %this, ptr nocapture nonnull readnone align 1 %0) unnamed_addr #7 align 2 {
entry:
  %cf_ = getelementptr inbounds nuw i8, ptr %this, i64 192
  %retval.sroa.0.0.copyload = load i64, ptr %cf_, align 8, !tbaa !52
  %retval.sroa.2.0.cf_.sroa_idx = getelementptr inbounds i8, ptr %this, i64 200
  %retval.sroa.2.0.copyload = load double, ptr %retval.sroa.2.0.cf_.sroa_idx, align 8, !tbaa !60
  %.fca.0.insert = insertvalue { i64, double } poison, i64 %retval.sroa.0.0.copyload, 0
  %.fca.1.insert = insertvalue { i64, double } %.fca.0.insert, double %retval.sroa.2.0.copyload, 1
  ret { i64, double } %.fca.1.insert
}